; Function Attrs: mustprogress nounwind uwtable
define dso_local void @_ZN5clang13ASTStmtReader28VisitOMPGenericLoopDirectiveEPNS_23OMPGenericLoopDirectiveE(ptr noundef nonnull readonly align 8 captures(none) dereferenceable(28) %0, ptr noundef captures(none) initializes((12, 20)) %1) local_unnamed_addr #0 align 2 {
  %3 = load ptr, ptr %0, align 8
  %4 = getelementptr inbounds nuw i8, ptr %3, i64 24
  %5 = load i32, ptr %4, align 8
  %6 = add i32 %5, 1
  store i32 %6, ptr %4, align 8
  tail call void @_ZN5clang13ASTStmtReader27VisitOMPExecutableDirectiveEPNS_22OMPExecutableDirectiveE(ptr noundef nonnull readonly align 8 dereferenceable(28) %0, ptr noundef %1)
  ret void
}